; Function Attrs: mustprogress nounwind uwtable
define hidden void @_ZN13Canonicalizer19move_const_to_rightEP3Op2(ptr nocapture noundef nonnull readnone align 8 dereferenceable(28) %0, ptr noundef %1) local_unnamed_addr #1 align 2 {
  %3 = getelementptr inbounds i8, ptr %1, i64 104
  %4 = load ptr, ptr %3, align 8
  %5 = getelementptr inbounds i8, ptr %4, i64 24
  %6 = load ptr, ptr %5, align 8
  %7 = load ptr, ptr %6, align 8
  %8 = getelementptr inbounds i8, ptr %7, i64 24
  %9 = load ptr, ptr %8, align 8
  %10 = tail call noundef zeroext i1 %9(ptr noundef nonnull align 8 dereferenceable(16) %6) #9
  br i1 %10, label %11, label %19

11:                                               ; preds = %2
  %12 = load ptr, ptr %1, align 8
  %13 = getelementptr inbounds i8, ptr %12, i64 496
  %14 = load ptr, ptr %13, align 8
  %15 = tail call noundef zeroext i1 %14(ptr noundef nonnull align 8 dereferenceable(120) %1) #9
  br i1 %15, label %16, label %19

16:                                               ; preds = %11
  %17 = load <2 x ptr>, ptr %3, align 8
  %18 = shufflevector <2 x ptr> %17, <2 x ptr> poison, <2 x i32> <i32 1, i32 0>
  store <2 x ptr> %18, ptr %3, align 8
  br label %19

19:                                               ; preds = %16, %11, %2
  ret void
}